; ModuleID = '22/146.c'
source_filename = "22/146.c"
target datalayout = "e-m:e-p270:32:32-p271:32:32-p272:64:64-i64:64-f80:128-n8:16:32:64-S128"
target triple = "x86_64-pc-linux-gnu"

@.str = private unnamed_addr constant [3 x i8] c"%d\00", align 1
@.str.1 = private unnamed_addr constant [4 x i8] c"No\0A\00", align 1
@.str.2 = private unnamed_addr constant [4 x i8] c"%d\0A\00", align 1

; Function Attrs: noinline nounwind uwtable
define dso_local void @main() #0 {
  %1 = alloca i32, align 4
  %2 = alloca i32, align 4
  %3 = alloca i32, align 4
  %4 = alloca i32, align 4
  %5 = alloca [100 x i32], align 16
  %6 = alloca i8, align 1
  store i32 0, i32* %3, align 4
  %7 = bitcast [100 x i32]* %5 to i8*
  call void @llvm.memset.p0i8.i64(i8* align 16 %7, i8 0, i64 400, i1 false)
  store i32 0, i32* %1, align 4
  br label %8

8:                                                ; preds = %21, %0
  %9 = load i32, i32* %1, align 4
  %10 = sext i32 %9 to i64
  %11 = getelementptr inbounds [100 x i32], [100 x i32]* %5, i64 0, i64 %10
  %12 = call i32 (i8*, ...) @__isoc99_scanf(i8* getelementptr inbounds ([3 x i8], [3 x i8]* @.str, i64 0, i64 0), i32* %11)
  %13 = call i32 @getchar()
  %14 = trunc i32 %13 to i8
  store i8 %14, i8* %6, align 1
  %15 = load i32, i32* %1, align 4
  store i32 %15, i32* %2, align 4
  %16 = load i8, i8* %6, align 1
  %17 = sext i8 %16 to i32
  %18 = icmp ne i32 %17, 44
  br i1 %18, label %19, label %20

19:                                               ; preds = %8
  br label %24

20:                                               ; preds = %8
  br label %21

21:                                               ; preds = %20
  %22 = load i32, i32* %1, align 4
  %23 = add nsw i32 %22, 1
  store i32 %23, i32* %1, align 4
  br label %8

24:                                               ; preds = %19
  %25 = load i32, i32* %2, align 4
  %26 = icmp eq i32 %25, 0
  br i1 %26, label %27, label %29

27:                                               ; preds = %24
  %28 = call i32 (i8*, ...) @printf(i8* getelementptr inbounds ([4 x i8], [4 x i8]* @.str.1, i64 0, i64 0))
  br label %29

29:                                               ; preds = %27, %24
  %30 = load i32, i32* %2, align 4
  %31 = icmp ne i32 %30, 0
  br i1 %31, label %32, label %129

32:                                               ; preds = %29
  store i32 1, i32* %1, align 4
  br label %33

33:                                               ; preds = %50, %32
  %34 = load i32, i32* %1, align 4
  %35 = load i32, i32* %2, align 4
  %36 = icmp sle i32 %34, %35
  br i1 %36, label %37, label %53

37:                                               ; preds = %33
  %38 = getelementptr inbounds [100 x i32], [100 x i32]* %5, i64 0, i64 0
  %39 = load i32, i32* %38, align 16
  %40 = load i32, i32* %1, align 4
  %41 = sext i32 %40 to i64
  %42 = getelementptr inbounds [100 x i32], [100 x i32]* %5, i64 0, i64 %41
  %43 = load i32, i32* %42, align 4
  %44 = icmp eq i32 %39, %43
  br i1 %44, label %45, label %48

45:                                               ; preds = %37
  %46 = load i32, i32* %3, align 4
  %47 = add nsw i32 %46, 1
  store i32 %47, i32* %3, align 4
  br label %49

48:                                               ; preds = %37
  br label %53

49:                                               ; preds = %45
  br label %50

50:                                               ; preds = %49
  %51 = load i32, i32* %1, align 4
  %52 = add nsw i32 %51, 1
  store i32 %52, i32* %1, align 4
  br label %33

53:                                               ; preds = %48, %33
  %54 = load i32, i32* %3, align 4
  %55 = load i32, i32* %2, align 4
  %56 = icmp eq i32 %54, %55
  br i1 %56, label %57, label %59

57:                                               ; preds = %53
  %58 = call i32 (i8*, ...) @printf(i8* getelementptr inbounds ([4 x i8], [4 x i8]* @.str.1, i64 0, i64 0))
  br label %128

59:                                               ; preds = %53
  %60 = getelementptr inbounds [100 x i32], [100 x i32]* %5, i64 0, i64 0
  %61 = load i32, i32* %60, align 16
  store i32 %61, i32* %4, align 4
  store i32 0, i32* %1, align 4
  br label %62

62:                                               ; preds = %79, %59
  %63 = load i32, i32* %1, align 4
  %64 = load i32, i32* %2, align 4
  %65 = icmp sle i32 %63, %64
  br i1 %65, label %66, label %82

66:                                               ; preds = %62
  %67 = load i32, i32* %4, align 4
  %68 = load i32, i32* %1, align 4
  %69 = sext i32 %68 to i64
  %70 = getelementptr inbounds [100 x i32], [100 x i32]* %5, i64 0, i64 %69
  %71 = load i32, i32* %70, align 4
  %72 = icmp slt i32 %67, %71
  br i1 %72, label %73, label %78

73:                                               ; preds = %66
  %74 = load i32, i32* %1, align 4
  %75 = sext i32 %74 to i64
  %76 = getelementptr inbounds [100 x i32], [100 x i32]* %5, i64 0, i64 %75
  %77 = load i32, i32* %76, align 4
  store i32 %77, i32* %4, align 4
  br label %78

78:                                               ; preds = %73, %66
  br label %79

79:                                               ; preds = %78
  %80 = load i32, i32* %1, align 4
  %81 = add nsw i32 %80, 1
  store i32 %81, i32* %1, align 4
  br label %62

82:                                               ; preds = %62
  store i32 0, i32* %1, align 4
  br label %83

83:                                               ; preds = %99, %82
  %84 = load i32, i32* %1, align 4
  %85 = load i32, i32* %2, align 4
  %86 = icmp sle i32 %84, %85
  br i1 %86, label %87, label %102

87:                                               ; preds = %83
  %88 = load i32, i32* %1, align 4
  %89 = sext i32 %88 to i64
  %90 = getelementptr inbounds [100 x i32], [100 x i32]* %5, i64 0, i64 %89
  %91 = load i32, i32* %90, align 4
  %92 = load i32, i32* %4, align 4
  %93 = icmp eq i32 %91, %92
  br i1 %93, label %94, label %98

94:                                               ; preds = %87
  %95 = load i32, i32* %1, align 4
  %96 = sext i32 %95 to i64
  %97 = getelementptr inbounds [100 x i32], [100 x i32]* %5, i64 0, i64 %96
  store i32 0, i32* %97, align 4
  br label %98

98:                                               ; preds = %94, %87
  br label %99

99:                                               ; preds = %98
  %100 = load i32, i32* %1, align 4
  %101 = add nsw i32 %100, 1
  store i32 %101, i32* %1, align 4
  br label %83

102:                                              ; preds = %83
  %103 = getelementptr inbounds [100 x i32], [100 x i32]* %5, i64 0, i64 0
  %104 = load i32, i32* %103, align 16
  store i32 %104, i32* %4, align 4
  store i32 0, i32* %1, align 4
  br label %105

105:                                              ; preds = %122, %102
  %106 = load i32, i32* %1, align 4
  %107 = load i32, i32* %2, align 4
  %108 = icmp sle i32 %106, %107
  br i1 %108, label %109, label %125

109:                                              ; preds = %105
  %110 = load i32, i32* %4, align 4
  %111 = load i32, i32* %1, align 4
  %112 = sext i32 %111 to i64
  %113 = getelementptr inbounds [100 x i32], [100 x i32]* %5, i64 0, i64 %112
  %114 = load i32, i32* %113, align 4
  %115 = icmp slt i32 %110, %114
  br i1 %115, label %116, label %121

116:                                              ; preds = %109
  %117 = load i32, i32* %1, align 4
  %118 = sext i32 %117 to i64
  %119 = getelementptr inbounds [100 x i32], [100 x i32]* %5, i64 0, i64 %118
  %120 = load i32, i32* %119, align 4
  store i32 %120, i32* %4, align 4
  br label %121

121:                                              ; preds = %116, %109
  br label %122

122:                                              ; preds = %121
  %123 = load i32, i32* %1, align 4
  %124 = add nsw i32 %123, 1
  store i32 %124, i32* %1, align 4
  br label %105

125:                                              ; preds = %105
  %126 = load i32, i32* %4, align 4
  %127 = call i32 (i8*, ...) @printf(i8* getelementptr inbounds ([4 x i8], [4 x i8]* @.str.2, i64 0, i64 0), i32 %126)
  br label %128

128:                                              ; preds = %125, %57
  br label %129

129:                                              ; preds = %128, %29
  ret void
}

; Function Attrs: argmemonly nounwind willreturn
declare void @llvm.memset.p0i8.i64(i8* nocapture writeonly, i8, i64, i1 immarg) #1

declare dso_local i32 @__isoc99_scanf(i8*, ...) #2

declare dso_local i32 @getchar() #2

declare dso_local i32 @printf(i8*, ...) #2


!llvm.module.flags = !{!0}
!llvm.ident = !{!1}

!0 = !{i32 1, !"wchar_size", i32 4}
!1 = !{!"clang version 10.0.0-4ubuntu1 "}
